target datalayout = "e-m:e-p270:32:32-p271:32:32-p272:64:64-i64:64-i128:128-f80:128-n8:16:32:64-S128"
target triple = "x86_64-pc-linux-gnu"

%struct.SN_env = type { ptr, i32, i32, i32, i32, i32, ptr, ptr }

@s_67 = internal constant [6 x i8] c"\CE\BF\CF\85\CE\B4", align 1

; Function Attrs: nounwind uwtable
define internal i32 @r_step2c(ptr noundef %0) #0 {
  %2 = alloca i32, align 4
  %3 = alloca ptr, align 8
  %4 = alloca i32, align 4
  %5 = alloca i32, align 4
  %6 = alloca i32, align 4
  store ptr %0, ptr %3, align 8
  %7 = load ptr, ptr %3, align 8
  %8 = getelementptr inbounds nuw %struct.SN_env, ptr %7, i32 0, i32 1
  %9 = load i32, ptr %8, align 8
  %10 = load ptr, ptr %3, align 8
  %11 = getelementptr inbounds nuw %struct.SN_env, ptr %10, i32 0, i32 5
  store i32 %9, ptr %11, align 8
  %12 = load ptr, ptr %3, align 8
  %13 = getelementptr inbounds nuw %struct.SN_env, ptr %12, i32 0, i32 1
  %14 = load i32, ptr %13, align 8
  %15 = sub i32 %14, 9
  %16 = load ptr, ptr %3, align 8
  %17 = getelementptr inbounds nuw %struct.SN_env, ptr %16, i32 0, i32 3
  %18 = load i32, ptr %17, align 8
  %19 = icmp sle i32 %15, %18
  br i1 %19, label %46, label %20

20:                                               ; preds = %1
  %21 = load ptr, ptr %3, align 8
  %22 = getelementptr inbounds nuw %struct.SN_env, ptr %21, i32 0, i32 0
  %23 = load ptr, ptr %22, align 8
  %24 = load ptr, ptr %3, align 8
  %25 = getelementptr inbounds nuw %struct.SN_env, ptr %24, i32 0, i32 1
  %26 = load i32, ptr %25, align 8
  %27 = sub i32 %26, 1
  %28 = sext i32 %27 to i64
  %29 = getelementptr inbounds i8, ptr %23, i64 %28
  %30 = load i8, ptr %29, align 1
  %31 = zext i8 %30 to i32
  %32 = icmp ne i32 %31, 131
  br i1 %32, label %33, label %47

33:                                               ; preds = %20
  %34 = load ptr, ptr %3, align 8
  %35 = getelementptr inbounds nuw %struct.SN_env, ptr %34, i32 0, i32 0
  %36 = load ptr, ptr %35, align 8
  %37 = load ptr, ptr %3, align 8
  %38 = getelementptr inbounds nuw %struct.SN_env, ptr %37, i32 0, i32 1
  %39 = load i32, ptr %38, align 8
  %40 = sub i32 %39, 1
  %41 = sext i32 %40 to i64
  %42 = getelementptr inbounds i8, ptr %36, i64 %41
  %43 = load i8, ptr %42, align 1
  %44 = zext i8 %43 to i32
  %45 = icmp ne i32 %44, 189
  br i1 %45, label %46, label %47

46:                                               ; preds = %33, %1
  store i32 0, ptr %2, align 4
  br label %93

47:                                               ; preds = %33, %20
  %48 = load ptr, ptr %3, align 8
  %49 = call i32 @find_among_b(ptr noundef %48, ptr noundef @a_28, i32 noundef 2)
  %50 = icmp ne i32 %49, 0
  br i1 %50, label %52, label %51

51:                                               ; preds = %47
  store i32 0, ptr %2, align 4
  br label %93

52:                                               ; preds = %47
  %53 = load ptr, ptr %3, align 8
  %54 = getelementptr inbounds nuw %struct.SN_env, ptr %53, i32 0, i32 1
  %55 = load i32, ptr %54, align 8
  %56 = load ptr, ptr %3, align 8
  %57 = getelementptr inbounds nuw %struct.SN_env, ptr %56, i32 0, i32 4
  store i32 %55, ptr %57, align 4
  call void @llvm.lifetime.start.p0(i64 4, ptr %4) #3
  %58 = load ptr, ptr %3, align 8
  %59 = call i32 @slice_del(ptr noundef %58)
  store i32 %59, ptr %4, align 4
  %60 = load i32, ptr %4, align 4
  %61 = icmp slt i32 %60, 0
  br i1 %61, label %62, label %64

62:                                               ; preds = %52
  %63 = load i32, ptr %4, align 4
  store i32 %63, ptr %2, align 4
  store i32 1, ptr %5, align 4
  br label %65

64:                                               ; preds = %52
  store i32 0, ptr %5, align 4
  br label %65

65:                                               ; preds = %64, %62
  call void @llvm.lifetime.end.p0(i64 4, ptr %4) #3
  %66 = load i32, ptr %5, align 4
  switch i32 %66, label %95 [
    i32 0, label %67
    i32 1, label %93
  ]

67:                                               ; preds = %65
  %68 = load ptr, ptr %3, align 8
  %69 = getelementptr inbounds nuw %struct.SN_env, ptr %68, i32 0, i32 1
  %70 = load i32, ptr %69, align 8
  %71 = load ptr, ptr %3, align 8
  %72 = getelementptr inbounds nuw %struct.SN_env, ptr %71, i32 0, i32 5
  store i32 %70, ptr %72, align 8
  %73 = load ptr, ptr %3, align 8
  %74 = getelementptr inbounds nuw %struct.SN_env, ptr %73, i32 0, i32 1
  %75 = load i32, ptr %74, align 8
  %76 = load ptr, ptr %3, align 8
  %77 = getelementptr inbounds nuw %struct.SN_env, ptr %76, i32 0, i32 4
  store i32 %75, ptr %77, align 4
  %78 = load ptr, ptr %3, align 8
  %79 = call i32 @find_among_b(ptr noundef %78, ptr noundef @a_29, i32 noundef 15)
  %80 = icmp ne i32 %79, 0
  br i1 %80, label %82, label %81

81:                                               ; preds = %67
  store i32 0, ptr %2, align 4
  br label %93

82:                                               ; preds = %67
  call void @llvm.lifetime.start.p0(i64 4, ptr %6) #3
  %83 = load ptr, ptr %3, align 8
  %84 = call i32 @slice_from_s(ptr noundef %83, i32 noundef 6, ptr noundef @s_67)
  store i32 %84, ptr %6, align 4
  %85 = load i32, ptr %6, align 4
  %86 = icmp slt i32 %85, 0
  br i1 %86, label %87, label %89

87:                                               ; preds = %82
  %88 = load i32, ptr %6, align 4
  store i32 %88, ptr %2, align 4
  store i32 1, ptr %5, align 4
  br label %90

89:                                               ; preds = %82
  store i32 0, ptr %5, align 4
  br label %90

90:                                               ; preds = %89, %87
  call void @llvm.lifetime.end.p0(i64 4, ptr %6) #3
  %91 = load i32, ptr %5, align 4
  switch i32 %91, label %95 [
    i32 0, label %92
    i32 1, label %93
  ]

92:                                               ; preds = %90
  store i32 1, ptr %2, align 4
  br label %93

93:                                               ; preds = %92, %90, %81, %65, %51, %46
  %94 = load i32, ptr %2, align 4
  ret i32 %94

95:                                               ; preds = %90, %65
  unreachable
}